target datalayout = "e-m:e-p270:32:32-p271:32:32-p272:64:64-i64:64-i128:128-f80:128-n8:16:32:64-S128"
target triple = "x86_64-pc-linux-gnu"

%struct.V360Context = type { ptr, i32, i32, i32, i32, i32, i32, i32, ptr, ptr, ptr, ptr, ptr, [6 x i32], [6 x i32], [6 x i32], [6 x i32], [3 x i32], i32, i32, float, float, i32, i32, float, float, float, float, float, i32, i32, i32, i32, i32, i32, i32, float, float, float, float, float, float, [2 x float], [2 x float], [2 x [4 x float]], [3 x float], i32, i32, i32, i32, [4 x i32], [4 x i32], [4 x i32], [4 x i32], [4 x i32], [4 x i32], [4 x i32], [4 x i32], [4 x i32], [4 x i32], [4 x i32], i32, i32, i32, i32, i32, i32, ptr, [4 x i32], ptr, ptr, ptr, ptr, ptr }

; Function Attrs: alwaysinline nounwind uwtable
define internal float @rescale(i32 noundef %0, float noundef %1) #12 {
  %3 = alloca i32, align 4
  %4 = alloca float, align 4
  store i32 %0, ptr %3, align 4, !tbaa !9
  store float %1, ptr %4, align 4, !tbaa !99
  %5 = load i32, ptr %3, align 4, !tbaa !9
  %6 = sitofp i32 %5 to float
  %7 = call nsz float @llvm.fmuladd.f32(float 2.000000e+00, float %6, float 1.000000e+00)
  %8 = load float, ptr %4, align 4, !tbaa !99
  %9 = fdiv nsz float %7, %8
  %10 = fsub nsz float %9, 1.000000e+00
  ret float %10
}

; Function Attrs: nounwind uwtable
define internal i32 @cylindrical_to_xyz(ptr noundef %0, i32 noundef %1, i32 noundef %2, i32 noundef %3, i32 noundef %4, ptr noundef %5) #0 {
  %7 = alloca ptr, align 8
  %8 = alloca i32, align 4
  %9 = alloca i32, align 4
  %10 = alloca i32, align 4
  %11 = alloca i32, align 4
  %12 = alloca ptr, align 8
  %13 = alloca float, align 4
  %14 = alloca float, align 4
  %15 = alloca float, align 4
  %16 = alloca float, align 4
  %17 = alloca float, align 4
  %18 = alloca float, align 4
  %19 = alloca float, align 4
  %20 = alloca float, align 4
  store ptr %0, ptr %7, align 8, !tbaa !4
  store i32 %1, ptr %8, align 4, !tbaa !9
  store i32 %2, ptr %9, align 4, !tbaa !9
  store i32 %3, ptr %10, align 4, !tbaa !9
  store i32 %4, ptr %11, align 4, !tbaa !9
  store ptr %5, ptr %12, align 8, !tbaa !188
  call void @llvm.lifetime.start.p0(i64 4, ptr %13) #13
  %21 = load ptr, ptr %7, align 8, !tbaa !4
  %22 = getelementptr inbounds nuw %struct.V360Context, ptr %21, i32 0, i32 42
  %23 = getelementptr inbounds [2 x float], ptr %22, i64 0, i64 0
  %24 = load float, ptr %23, align 4, !tbaa !99
  %25 = load i32, ptr %8, align 4, !tbaa !9
  %26 = load i32, ptr %10, align 4, !tbaa !9
  %27 = sitofp i32 %26 to float
  %28 = call nsz float @rescale(i32 noundef %25, float noundef %27)
  %29 = fmul nsz float %24, %28
  store float %29, ptr %13, align 4, !tbaa !99
  call void @llvm.lifetime.start.p0(i64 4, ptr %14) #13
  %30 = load ptr, ptr %7, align 8, !tbaa !4
  %31 = getelementptr inbounds nuw %struct.V360Context, ptr %30, i32 0, i32 42
  %32 = getelementptr inbounds [2 x float], ptr %31, i64 0, i64 1
  %33 = load float, ptr %32, align 4, !tbaa !99
  %34 = load i32, ptr %9, align 4, !tbaa !9
  %35 = load i32, ptr %11, align 4, !tbaa !9
  %36 = sitofp i32 %35 to float
  %37 = call nsz float @rescale(i32 noundef %34, float noundef %36)
  %38 = fmul nsz float %33, %37
  store float %38, ptr %14, align 4, !tbaa !99
  call void @llvm.lifetime.start.p0(i64 4, ptr %15) #13
  %39 = load float, ptr %13, align 4, !tbaa !99
  store float %39, ptr %15, align 4, !tbaa !99
  call void @llvm.lifetime.start.p0(i64 4, ptr %16) #13
  %40 = load float, ptr %14, align 4, !tbaa !99
  %41 = call nsz float @llvm.atan.f32(float %40)
  store float %41, ptr %16, align 4, !tbaa !99
  call void @llvm.lifetime.start.p0(i64 4, ptr %17) #13
  %42 = load float, ptr %15, align 4, !tbaa !99
  %43 = call nsz float @llvm.sin.f32(float %42)
  store float %43, ptr %17, align 4, !tbaa !99
  call void @llvm.lifetime.start.p0(i64 4, ptr %18) #13
  %44 = load float, ptr %15, align 4, !tbaa !99
  %45 = call nsz float @llvm.cos.f32(float %44)
  store float %45, ptr %18, align 4, !tbaa !99
  call void @llvm.lifetime.start.p0(i64 4, ptr %19) #13
  %46 = load float, ptr %16, align 4, !tbaa !99
  %47 = call nsz float @llvm.sin.f32(float %46)
  store float %47, ptr %19, align 4, !tbaa !99
  call void @llvm.lifetime.start.p0(i64 4, ptr %20) #13
  %48 = load float, ptr %16, align 4, !tbaa !99
  %49 = call nsz float @llvm.cos.f32(float %48)
  store float %49, ptr %20, align 4, !tbaa !99
  %50 = load float, ptr %20, align 4, !tbaa !99
  %51 = load float, ptr %17, align 4, !tbaa !99
  %52 = fmul nsz float %50, %51
  %53 = load ptr, ptr %12, align 8, !tbaa !188
  %54 = getelementptr inbounds float, ptr %53, i64 0
  store float %52, ptr %54, align 4, !tbaa !99
  %55 = load float, ptr %19, align 4, !tbaa !99
  %56 = load ptr, ptr %12, align 8, !tbaa !188
  %57 = getelementptr inbounds float, ptr %56, i64 1
  store float %55, ptr %57, align 4, !tbaa !99
  %58 = load float, ptr %20, align 4, !tbaa !99
  %59 = load float, ptr %18, align 4, !tbaa !99
  %60 = fmul nsz float %58, %59
  %61 = load ptr, ptr %12, align 8, !tbaa !188
  %62 = getelementptr inbounds float, ptr %61, i64 2
  store float %60, ptr %62, align 4, !tbaa !99
  call void @llvm.lifetime.end.p0(i64 4, ptr %20) #13
  call void @llvm.lifetime.end.p0(i64 4, ptr %19) #13
  call void @llvm.lifetime.end.p0(i64 4, ptr %18) #13
  call void @llvm.lifetime.end.p0(i64 4, ptr %17) #13
  call void @llvm.lifetime.end.p0(i64 4, ptr %16) #13
  call void @llvm.lifetime.end.p0(i64 4, ptr %15) #13
  call void @llvm.lifetime.end.p0(i64 4, ptr %14) #13
  call void @llvm.lifetime.end.p0(i64 4, ptr %13) #13
  ret i32 1
}