; Function Attrs: mustprogress nofree norecurse nosync nounwind willreturn memory(argmem: readwrite) uwtable
define internal noundef i32 @cylindrical_to_xyz(ptr noundef readonly captures(none) %0, i32 noundef %1, i32 noundef %2, i32 noundef %3, i32 noundef %4, ptr noundef writeonly captures(none) initializes((0, 12)) %5) #0 {
  %7 = getelementptr inbounds nuw i8, ptr %0, i64 284
  %8 = load float, ptr %7, align 4, !tbaa !49
  %9 = sitofp i32 %3 to float
  %10 = sitofp i32 %1 to float
  %11 = tail call nsz float @llvm.fmuladd.f32(float %10, float 2.000000e+00, float 1.000000e+00)
  %12 = fdiv nsz float %11, %9
  %13 = fadd nsz float %12, -1.000000e+00
  %14 = fmul nsz float %13, %8
  %15 = getelementptr inbounds nuw i8, ptr %0, i64 288
  %16 = load float, ptr %15, align 4, !tbaa !49
  %17 = sitofp i32 %4 to float
  %18 = sitofp i32 %2 to float
  %19 = tail call nsz float @llvm.fmuladd.f32(float %18, float 2.000000e+00, float 1.000000e+00)
  %20 = fdiv nsz float %19, %17
  %21 = fadd nsz float %20, -1.000000e+00
  %22 = fmul nsz float %21, %16
  %23 = tail call nsz float @llvm.atan.f32(float %22)
  %24 = tail call nsz float @llvm.sin.f32(float %14)
  %25 = tail call nsz float @llvm.cos.f32(float %14)
  %26 = tail call nsz float @llvm.sin.f32(float %23)
  %27 = tail call nsz float @llvm.cos.f32(float %23)
  %28 = fmul nsz float %24, %27
  store float %28, ptr %5, align 4, !tbaa !49
  %29 = getelementptr inbounds nuw i8, ptr %5, i64 4
  store float %26, ptr %29, align 4, !tbaa !49
  %30 = fmul nsz float %25, %27
  %31 = getelementptr inbounds nuw i8, ptr %5, i64 8
  store float %30, ptr %31, align 4, !tbaa !49
  ret i32 1
}